; Function Attrs: nounwind uwtable
define ptr @l_Array_foldlMUnsafe_fold___at_Lean_Elab_Command_elabAuxDef___spec__4(ptr noundef readonly captures(none) %0, i64 noundef %1, i64 noundef %2, ptr noundef %3) local_unnamed_addr #0 {
  %.not25 = icmp eq i64 %1, %2
  br i1 %.not25, label %._crit_edge, label %.lr.ph

.lr.ph:                                           ; preds = %4
  %5 = getelementptr inbounds nuw i8, ptr %0, i64 24
  br label %6

6:                                                ; preds = %.lr.ph, %17
  %.01427 = phi i64 [ %1, %.lr.ph ], [ %19, %17 ]
  %.01626 = phi ptr [ %3, %.lr.ph ], [ %18, %17 ]
  %7 = getelementptr inbounds nuw [0 x ptr], ptr %5, i64 0, i64 %.01427
  %8 = load ptr, ptr %7, align 8, !tbaa !4
  %9 = ptrtoint ptr %8 to i64
  %10 = and i64 %9, 1
  %.not.i = icmp eq i64 %10, 0
  br i1 %.not.i, label %11, label %17

11:                                               ; preds = %6
  %.val.i.i = load i32, ptr %8, align 4, !tbaa !8
  %12 = icmp sgt i32 %.val.i.i, 0
  br i1 %12, label %13, label %15, !prof !13

13:                                               ; preds = %11
  %14 = add nuw i32 %.val.i.i, 1
  store i32 %14, ptr %8, align 4, !tbaa !8
  br label %17

15:                                               ; preds = %11
  %.not.i.i = icmp eq i32 %.val.i.i, 0
  br i1 %.not.i.i, label %17, label %16

16:                                               ; preds = %15
  tail call void @lean_inc_ref_cold(ptr noundef nonnull %8) #6
  br label %17

17:                                               ; preds = %16, %15, %13, %6
  %18 = tail call ptr @l_Lean_Name_append(ptr noundef %.01626, ptr noundef %8) #6
  %19 = add i64 %.01427, 1
  %.not = icmp eq i64 %19, %2
  br i1 %.not, label %._crit_edge, label %6

._crit_edge:                                      ; preds = %17, %4
  %.016.lcssa = phi ptr [ %3, %4 ], [ %18, %17 ]
  ret ptr %.016.lcssa
}